(dp1
S'editors'
p2
ccopy_reg
_reconstructor
p3
(ctwisted.plugin
CachedDropin
p4
c__builtin__
object
p5
NtRp6
(dp7
S'moduleName'
p8
S'txspace.modules.editors'
p9
sS'description'
p10
S'\nGraphical object editor support.\n'
p11
sS'plugins'
p12
(lp13
g3
(ctwisted.plugin
CachedPlugin
p14
g5
NtRp15
(dp16
S'provided'
p17
(lp18
ctwisted.plugin
IPlugin
p19
actxspace.modules
IModule
p20
asS'dropin'
p21
g6
sS'name'
p22
S'EditorModule'
p23
sg10
Nsbag3
(g14
g5
NtRp24
(dp25
g17
(lp26
g19
ag20
asg21
g6
sg22
S'AccessEditorModule'
p27
sg10
Nsbasbs.